target datalayout = "e-m:e-p270:32:32-p271:32:32-p272:64:64-i64:64-i128:128-f80:128-n8:16:32:64-S128"
target triple = "x86_64-pc-linux-gnu"

%"class.sat::literal" = type { i32 }
%"class.pb::card" = type { %"class.pb::constraint", [0 x %"class.sat::literal"] }
%"class.pb::constraint" = type { ptr, i32, i8, %"class.sat::literal", %"class.sat::literal", i32, i32, i32, i64, i8, i32, i8, i32 }
%"class.std::ios_base" = type { ptr, i64, i64, i32, i32, i32, ptr, %"struct.std::ios_base::_Words", [8 x %"struct.std::ios_base::_Words"], i32, ptr, %"class.std::locale" }
%"struct.std::ios_base::_Words" = type { ptr, i64 }
%"class.std::locale" = type { ptr }

@.str = private unnamed_addr constant [2 x i8] c" \00", align 1
@_ZN3sat12null_literalE = linkonce_odr hidden constant %"class.sat::literal" { i32 -2 }, comdat, align 4
@.str.4 = private unnamed_addr constant [3 x i8] c"@(\00", align 1
@.str.5 = private unnamed_addr constant [2 x i8] c":\00", align 1
@.str.8 = private unnamed_addr constant [3 x i8] c") \00", align 1
@.str.9 = private unnamed_addr constant [4 x i8] c">= \00", align 1
@.str.10 = private unnamed_addr constant [2 x i8] c"\0A\00", align 1
@.str.13 = private unnamed_addr constant [5 x i8] c"null\00", align 1
@.str.14 = private unnamed_addr constant [2 x i8] c"-\00", align 1
@.str.15 = private unnamed_addr constant [1 x i8] zeroinitializer, align 1

; Function Attrs: inlinehint mustprogress nounwind uwtable
define linkonce_odr noundef i32 @_ZStorSt12_Ios_IostateS_(i32 noundef %0, i32 noundef %1) #8 comdat {
  %3 = alloca i32, align 4
  %4 = alloca i32, align 4
  store i32 %0, ptr %3, align 4, !tbaa !138
  store i32 %1, ptr %4, align 4, !tbaa !138
  %5 = load i32, ptr %3, align 4, !tbaa !138
  %6 = load i32, ptr %4, align 4, !tbaa !138
  %7 = or i32 %5, %6
  ret i32 %7
}

; Function Attrs: mustprogress nounwind uwtable
define available_externally noundef i32 @_ZNKSt9basic_iosIcSt11char_traitsIcEE7rdstateEv(ptr noundef nonnull align 8 dereferenceable(264) %0) #6 align 2 {
  %2 = alloca ptr, align 8
  store ptr %0, ptr %2, align 8, !tbaa !136
  %3 = load ptr, ptr %2, align 8
  %4 = getelementptr inbounds nuw %"class.std::ios_base", ptr %3, i32 0, i32 5
  %5 = load i32, ptr %4, align 8, !tbaa !140
  ret i32 %5
}

; Function Attrs: mustprogress nounwind uwtable
define linkonce_odr hidden noundef i64 @_ZNSt11char_traitsIcE6lengthEPKc(ptr noundef %0) #6 comdat align 2 {
  %2 = alloca ptr, align 8
  store ptr %0, ptr %2, align 8, !tbaa !72
  %3 = load ptr, ptr %2, align 8, !tbaa !72
  %4 = call i64 @strlen(ptr noundef %3) #3
  ret i64 %4
}

; Function Attrs: mustprogress uwtable
define available_externally void @_ZNSt9basic_iosIcSt11char_traitsIcEE8setstateESt12_Ios_Iostate(ptr noundef nonnull align 8 dereferenceable(264) %0, i32 noundef %1) #4 align 2 {
  %3 = alloca ptr, align 8
  %4 = alloca i32, align 4
  store ptr %0, ptr %3, align 8, !tbaa !136
  store i32 %1, ptr %4, align 4, !tbaa !138
  %5 = load ptr, ptr %3, align 8
  %6 = call noundef i32 @_ZNKSt9basic_iosIcSt11char_traitsIcEE7rdstateEv(ptr noundef nonnull align 8 dereferenceable(264) %5)
  %7 = load i32, ptr %4, align 4, !tbaa !138
  %8 = call noundef i32 @_ZStorSt12_Ios_IostateS_(i32 noundef %6, i32 noundef %7)
  call void @_ZNSt9basic_iosIcSt11char_traitsIcEE5clearESt12_Ios_Iostate(ptr noundef nonnull align 8 dereferenceable(264) %5, i32 noundef %8)
  ret void
}

; Function Attrs: mustprogress nounwind uwtable
define linkonce_odr hidden noundef i32 @_ZNK3sat7literal3varEv(ptr noundef nonnull align 4 dereferenceable(4) %0) #6 comdat align 2 {
  %2 = alloca ptr, align 8
  store ptr %0, ptr %2, align 8, !tbaa !42
  %3 = load ptr, ptr %2, align 8
  %4 = getelementptr inbounds nuw %"class.sat::literal", ptr %3, i32 0, i32 0
  %5 = load i32, ptr %4, align 4, !tbaa !43
  %6 = lshr i32 %5, 1
  ret i32 %6
}

; Function Attrs: mustprogress nounwind uwtable
define linkonce_odr hidden noundef zeroext i1 @_ZNK3sat7literal4signEv(ptr noundef nonnull align 4 dereferenceable(4) %0) #6 comdat align 2 {
  %2 = alloca ptr, align 8
  store ptr %0, ptr %2, align 8, !tbaa !42
  %3 = load ptr, ptr %2, align 8
  %4 = getelementptr inbounds nuw %"class.sat::literal", ptr %3, i32 0, i32 0
  %5 = load i32, ptr %4, align 4, !tbaa !43
  %6 = zext i32 %5 to i64
  %7 = and i64 %6, 1
  %8 = icmp ne i64 %7, 0
  ret i1 %8
}

; Function Attrs: inlinehint mustprogress nounwind uwtable
define linkonce_odr hidden noundef zeroext i1 @_ZN3sateqERKNS_7literalES2_(ptr noundef nonnull align 4 dereferenceable(4) %0, ptr noundef nonnull align 4 dereferenceable(4) %1) #8 comdat {
  %3 = alloca ptr, align 8
  %4 = alloca ptr, align 8
  store ptr %0, ptr %3, align 8, !tbaa !42
  store ptr %1, ptr %4, align 8, !tbaa !42
  %5 = load ptr, ptr %3, align 8, !tbaa !42
  %6 = getelementptr inbounds nuw %"class.sat::literal", ptr %5, i32 0, i32 0
  %7 = load i32, ptr %6, align 4, !tbaa !43
  %8 = load ptr, ptr %4, align 8, !tbaa !42
  %9 = getelementptr inbounds nuw %"class.sat::literal", ptr %8, i32 0, i32 0
  %10 = load i32, ptr %9, align 4, !tbaa !43
  %11 = icmp eq i32 %7, %10
  ret i1 %11
}

; Function Attrs: mustprogress nounwind uwtable
define linkonce_odr hidden noundef i32 @_ZNK2pb10constraint1kEv(ptr noundef nonnull align 8 dereferenceable(64) %0) #6 comdat align 2 {
  %2 = alloca ptr, align 8
  store ptr %0, ptr %2, align 8, !tbaa !22
  %3 = load ptr, ptr %2, align 8
  %4 = getelementptr inbounds nuw %"class.pb::constraint", ptr %3, i32 0, i32 12
  %5 = load i32, ptr %4, align 4, !tbaa !40
  ret i32 %5
}

; Function Attrs: mustprogress uwtable
define available_externally noundef nonnull align 8 dereferenceable(8) ptr @_ZNSolsEj(ptr noundef nonnull align 8 dereferenceable(8) %0, i32 noundef %1) #4 align 2 {
  %3 = alloca ptr, align 8
  %4 = alloca i32, align 4
  store ptr %0, ptr %3, align 8, !tbaa !70
  store i32 %1, ptr %4, align 4, !tbaa !8
  %5 = load ptr, ptr %3, align 8
  %6 = load i32, ptr %4, align 4, !tbaa !8
  %7 = zext i32 %6 to i64
  %8 = call noundef nonnull align 8 dereferenceable(8) ptr @_ZNSo9_M_insertImEERSoT_(ptr noundef nonnull align 8 dereferenceable(8) %5, i64 noundef %7)
  ret ptr %8
}

; Function Attrs: inlinehint mustprogress uwtable
define available_externally noundef nonnull align 8 dereferenceable(8) ptr @_ZStlsISt11char_traitsIcEERSt13basic_ostreamIcT_ES5_PKc(ptr noundef nonnull align 8 dereferenceable(8) %0, ptr noundef %1) #9 {
  %3 = alloca ptr, align 8
  %4 = alloca ptr, align 8
  store ptr %0, ptr %3, align 8, !tbaa !70
  store ptr %1, ptr %4, align 8, !tbaa !72
  %5 = load ptr, ptr %4, align 8, !tbaa !72
  %6 = icmp ne ptr %5, null
  br i1 %6, label %13, label %7

7:                                                ; preds = %2
  %8 = load ptr, ptr %3, align 8, !tbaa !70
  %9 = load ptr, ptr %8, align 8, !tbaa !13
  %10 = getelementptr i8, ptr %9, i64 -24
  %11 = load i64, ptr %10, align 8
  %12 = getelementptr inbounds i8, ptr %8, i64 %11
  call void @_ZNSt9basic_iosIcSt11char_traitsIcEE8setstateESt12_Ios_Iostate(ptr noundef nonnull align 8 dereferenceable(264) %12, i32 noundef 1)
  br label %19

13:                                               ; preds = %2
  %14 = load ptr, ptr %3, align 8, !tbaa !70
  %15 = load ptr, ptr %4, align 8, !tbaa !72
  %16 = load ptr, ptr %4, align 8, !tbaa !72
  %17 = call noundef i64 @_ZNSt11char_traitsIcE6lengthEPKc(ptr noundef %16)
  %18 = call noundef nonnull align 8 dereferenceable(8) ptr @_ZSt16__ostream_insertIcSt11char_traitsIcEERSt13basic_ostreamIT_T0_ES6_PKS3_l(ptr noundef nonnull align 8 dereferenceable(8) %14, ptr noundef %15, i64 noundef %17)
  br label %19

19:                                               ; preds = %13, %7
  %20 = load ptr, ptr %3, align 8, !tbaa !70
  ret ptr %20
}

; Function Attrs: inlinehint mustprogress uwtable
define linkonce_odr hidden noundef nonnull align 8 dereferenceable(8) ptr @_ZN3satlsERSoNS_7literalE(ptr noundef nonnull align 8 dereferenceable(8) %0, i32 %1) #9 comdat {
  %3 = alloca %"class.sat::literal", align 4
  %4 = alloca ptr, align 8
  %5 = getelementptr inbounds nuw %"class.sat::literal", ptr %3, i32 0, i32 0
  store i32 %1, ptr %5, align 4
  store ptr %0, ptr %4, align 8, !tbaa !70
  %6 = call noundef zeroext i1 @_ZN3sateqERKNS_7literalES2_(ptr noundef nonnull align 4 dereferenceable(4) %3, ptr noundef nonnull align 4 dereferenceable(4) @_ZN3sat12null_literalE)
  br i1 %6, label %7, label %10

7:                                                ; preds = %2
  %8 = load ptr, ptr %4, align 8, !tbaa !70
  %9 = call noundef nonnull align 8 dereferenceable(8) ptr @_ZStlsISt11char_traitsIcEERSt13basic_ostreamIcT_ES5_PKc(ptr noundef nonnull align 8 dereferenceable(8) %8, ptr noundef @.str.13)
  br label %17

10:                                               ; preds = %2
  %11 = load ptr, ptr %4, align 8, !tbaa !70
  %12 = call noundef zeroext i1 @_ZNK3sat7literal4signEv(ptr noundef nonnull align 4 dereferenceable(4) %3)
  %13 = select i1 %12, ptr @.str.14, ptr @.str.15
  %14 = call noundef nonnull align 8 dereferenceable(8) ptr @_ZStlsISt11char_traitsIcEERSt13basic_ostreamIcT_ES5_PKc(ptr noundef nonnull align 8 dereferenceable(8) %11, ptr noundef %13)
  %15 = call noundef i32 @_ZNK3sat7literal3varEv(ptr noundef nonnull align 4 dereferenceable(4) %3)
  %16 = call noundef nonnull align 8 dereferenceable(8) ptr @_ZNSolsEj(ptr noundef nonnull align 8 dereferenceable(8) %14, i32 noundef %15)
  br label %17

17:                                               ; preds = %10, %7
  %18 = load ptr, ptr %4, align 8, !tbaa !70
  ret ptr %18
}

; Function Attrs: mustprogress nounwind uwtable
define linkonce_odr hidden i32 @_ZNK2pb4cardixEj(ptr noundef nonnull align 8 dereferenceable(64) %0, i32 noundef %1) #6 comdat align 2 {
  %3 = alloca %"class.sat::literal", align 4
  %4 = alloca ptr, align 8
  %5 = alloca i32, align 4
  store ptr %0, ptr %4, align 8, !tbaa !3
  store i32 %1, ptr %5, align 4, !tbaa !8
  %6 = load ptr, ptr %4, align 8
  %7 = getelementptr inbounds nuw %"class.pb::card", ptr %6, i32 0, i32 1
  %8 = load i32, ptr %5, align 4, !tbaa !8
  %9 = zext i32 %8 to i64
  %10 = getelementptr inbounds nuw [0 x %"class.sat::literal"], ptr %7, i64 0, i64 %9
  call void @llvm.memcpy.p0.p0.i64(ptr align 4 %3, ptr align 4 %10, i64 4, i1 false), !tbaa.struct !12
  %11 = getelementptr inbounds nuw %"class.sat::literal", ptr %3, i32 0, i32 0
  %12 = load i32, ptr %11, align 4
  ret i32 %12
}

; Function Attrs: mustprogress nounwind uwtable
define linkonce_odr hidden noundef i32 @_ZNK2pb10constraint4sizeEv(ptr noundef nonnull align 8 dereferenceable(64) %0) #6 comdat align 2 {
  %2 = alloca ptr, align 8
  store ptr %0, ptr %2, align 8, !tbaa !22
  %3 = load ptr, ptr %2, align 8
  %4 = getelementptr inbounds nuw %"class.pb::constraint", ptr %3, i32 0, i32 7
  %5 = load i32, ptr %4, align 8, !tbaa !35
  ret i32 %5
}

; Function Attrs: mustprogress nounwind uwtable
define linkonce_odr hidden i32 @_ZNK2pb10constraint3litEv(ptr noundef nonnull align 8 dereferenceable(64) %0) #6 comdat align 2 {
  %2 = alloca %"class.sat::literal", align 4
  %3 = alloca ptr, align 8
  store ptr %0, ptr %3, align 8, !tbaa !22
  %4 = load ptr, ptr %3, align 8
  %5 = getelementptr inbounds nuw %"class.pb::constraint", ptr %4, i32 0, i32 3
  call void @llvm.memcpy.p0.p0.i64(ptr align 4 %2, ptr align 8 %5, i64 4, i1 false), !tbaa.struct !12
  %6 = getelementptr inbounds nuw %"class.sat::literal", ptr %2, i32 0, i32 0
  %7 = load i32, ptr %6, align 4
  ret i32 %7
}

; Function Attrs: mustprogress uwtable
define hidden noundef nonnull align 8 dereferenceable(8) ptr @_ZNK2pb4card7displayERSoRKNS_16solver_interfaceEb(ptr noundef nonnull align 8 dereferenceable(64) %0, ptr noundef nonnull align 8 dereferenceable(8) %1, ptr noundef nonnull align 8 dereferenceable(8) %2, i1 noundef zeroext %3) unnamed_addr #4 align 2 {
  %5 = alloca ptr, align 8
  %6 = alloca ptr, align 8
  %7 = alloca ptr, align 8
  %8 = alloca i8, align 1
  %9 = alloca ptr, align 8
  %10 = alloca %"class.sat::literal", align 4
  %11 = alloca i32, align 4
  %12 = alloca %"class.sat::literal", align 4
  %13 = alloca %"class.sat::literal", align 4
  %14 = alloca %"class.sat::literal", align 4
  %15 = alloca %"class.sat::literal", align 4
  %16 = alloca %"class.sat::literal", align 4
  store ptr %0, ptr %5, align 8, !tbaa !3
  store ptr %1, ptr %6, align 8, !tbaa !70
  store ptr %2, ptr %7, align 8, !tbaa !47
  %17 = zext i1 %3 to i8
  store i8 %17, ptr %8, align 1, !tbaa !66
  %18 = load ptr, ptr %5, align 8
  call void @llvm.lifetime.start.p0(i64 8, ptr %9) #3
  store ptr %18, ptr %9, align 8, !tbaa !3
  %19 = load ptr, ptr %6, align 8, !tbaa !70
  %20 = load ptr, ptr %7, align 8, !tbaa !47
  %21 = load ptr, ptr %9, align 8, !tbaa !3
  %22 = call i32 @_ZNK2pb10constraint3litEv(ptr noundef nonnull align 8 dereferenceable(64) %21)
  %23 = getelementptr inbounds nuw %"class.sat::literal", ptr %10, i32 0, i32 0
  store i32 %22, ptr %23, align 4
  %24 = load ptr, ptr %9, align 8, !tbaa !3
  %25 = call noundef i32 @_ZNK2pb10constraint4sizeEv(ptr noundef nonnull align 8 dereferenceable(64) %24)
  %26 = load i8, ptr %8, align 1, !tbaa !66, !range !67, !noundef !68
  %27 = trunc i8 %26 to i1
  %28 = getelementptr inbounds nuw %"class.sat::literal", ptr %10, i32 0, i32 0
  %29 = load i32, ptr %28, align 4
  call void @_ZNK2pb10constraint11display_litERSoRKNS_16solver_interfaceEN3sat7literalEjb(ptr noundef nonnull align 8 dereferenceable(64) %18, ptr noundef nonnull align 8 dereferenceable(8) %19, ptr noundef nonnull align 8 dereferenceable(8) %20, i32 %29, i32 noundef %25, i1 noundef zeroext %27)
  call void @llvm.lifetime.start.p0(i64 4, ptr %11) #3
  store i32 0, ptr %11, align 4, !tbaa !8
  br label %30

30:                                               ; preds = %84, %4
  %31 = load i32, ptr %11, align 4, !tbaa !8
  %32 = load ptr, ptr %9, align 8, !tbaa !3
  %33 = call noundef i32 @_ZNK2pb10constraint4sizeEv(ptr noundef nonnull align 8 dereferenceable(64) %32)
  %34 = icmp ult i32 %31, %33
  br i1 %34, label %36, label %35

35:                                               ; preds = %30
  call void @llvm.lifetime.end.p0(i64 4, ptr %11) #3
  br label %87

36:                                               ; preds = %30
  call void @llvm.lifetime.start.p0(i64 4, ptr %12) #3
  %37 = load ptr, ptr %9, align 8, !tbaa !3
  %38 = load i32, ptr %11, align 4, !tbaa !8
  %39 = call i32 @_ZNK2pb4cardixEj(ptr noundef nonnull align 8 dereferenceable(64) %37, i32 noundef %38)
  %40 = getelementptr inbounds nuw %"class.sat::literal", ptr %12, i32 0, i32 0
  store i32 %39, ptr %40, align 4
  %41 = load ptr, ptr %6, align 8, !tbaa !70
  call void @llvm.memcpy.p0.p0.i64(ptr align 4 %13, ptr align 4 %12, i64 4, i1 false), !tbaa.struct !12
  %42 = getelementptr inbounds nuw %"class.sat::literal", ptr %13, i32 0, i32 0
  %43 = load i32, ptr %42, align 4
  %44 = call noundef nonnull align 8 dereferenceable(8) ptr @_ZN3satlsERSoNS_7literalE(ptr noundef nonnull align 8 dereferenceable(8) %41, i32 %43)
  %45 = load i8, ptr %8, align 1, !tbaa !66, !range !67, !noundef !68
  %46 = trunc i8 %45 to i1
  br i1 %46, label %47, label %80

47:                                               ; preds = %36
  %48 = load ptr, ptr %6, align 8, !tbaa !70
  %49 = call noundef nonnull align 8 dereferenceable(8) ptr @_ZStlsISt11char_traitsIcEERSt13basic_ostreamIcT_ES5_PKc(ptr noundef nonnull align 8 dereferenceable(8) %48, ptr noundef @.str.4)
  %50 = load ptr, ptr %7, align 8, !tbaa !47
  call void @llvm.memcpy.p0.p0.i64(ptr align 4 %14, ptr align 4 %12, i64 4, i1 false), !tbaa.struct !12
  %51 = getelementptr inbounds nuw %"class.sat::literal", ptr %14, i32 0, i32 0
  %52 = load i32, ptr %51, align 4
  %53 = load ptr, ptr %50, align 8, !tbaa !13
  %54 = getelementptr inbounds ptr, ptr %53, i64 3
  %55 = load ptr, ptr %54, align 8
  %56 = call noundef i32 %55(ptr noundef nonnull align 8 dereferenceable(8) %50, i32 %52)
  %57 = call noundef nonnull align 8 dereferenceable(8) ptr @_ZlsRSo5lbool(ptr noundef nonnull align 8 dereferenceable(8) %49, i32 noundef %56)
  %58 = load ptr, ptr %7, align 8, !tbaa !47
  call void @llvm.memcpy.p0.p0.i64(ptr align 4 %15, ptr align 4 %12, i64 4, i1 false), !tbaa.struct !12
  %59 = getelementptr inbounds nuw %"class.sat::literal", ptr %15, i32 0, i32 0
  %60 = load i32, ptr %59, align 4
  %61 = load ptr, ptr %58, align 8, !tbaa !13
  %62 = getelementptr inbounds ptr, ptr %61, i64 3
  %63 = load ptr, ptr %62, align 8
  %64 = call noundef i32 %63(ptr noundef nonnull align 8 dereferenceable(8) %58, i32 %60)
  %65 = icmp ne i32 %64, 0
  br i1 %65, label %66, label %77

66:                                               ; preds = %47
  %67 = load ptr, ptr %6, align 8, !tbaa !70
  %68 = call noundef nonnull align 8 dereferenceable(8) ptr @_ZStlsISt11char_traitsIcEERSt13basic_ostreamIcT_ES5_PKc(ptr noundef nonnull align 8 dereferenceable(8) %67, ptr noundef @.str.5)
  %69 = load ptr, ptr %7, align 8, !tbaa !47
  call void @llvm.memcpy.p0.p0.i64(ptr align 4 %16, ptr align 4 %12, i64 4, i1 false), !tbaa.struct !12
  %70 = getelementptr inbounds nuw %"class.sat::literal", ptr %16, i32 0, i32 0
  %71 = load i32, ptr %70, align 4
  %72 = load ptr, ptr %69, align 8, !tbaa !13
  %73 = getelementptr inbounds ptr, ptr %72, i64 5
  %74 = load ptr, ptr %73, align 8
  %75 = call noundef i32 %74(ptr noundef nonnull align 8 dereferenceable(8) %69, i32 %71)
  %76 = call noundef nonnull align 8 dereferenceable(8) ptr @_ZNSolsEj(ptr noundef nonnull align 8 dereferenceable(8) %68, i32 noundef %75)
  br label %77

77:                                               ; preds = %66, %47
  %78 = load ptr, ptr %6, align 8, !tbaa !70
  %79 = call noundef nonnull align 8 dereferenceable(8) ptr @_ZStlsISt11char_traitsIcEERSt13basic_ostreamIcT_ES5_PKc(ptr noundef nonnull align 8 dereferenceable(8) %78, ptr noundef @.str.8)
  br label %83

80:                                               ; preds = %36
  %81 = load ptr, ptr %6, align 8, !tbaa !70
  %82 = call noundef nonnull align 8 dereferenceable(8) ptr @_ZStlsISt11char_traitsIcEERSt13basic_ostreamIcT_ES5_PKc(ptr noundef nonnull align 8 dereferenceable(8) %81, ptr noundef @.str)
  br label %83

83:                                               ; preds = %80, %77
  call void @llvm.lifetime.end.p0(i64 4, ptr %12) #3
  br label %84

84:                                               ; preds = %83
  %85 = load i32, ptr %11, align 4, !tbaa !8
  %86 = add i32 %85, 1
  store i32 %86, ptr %11, align 4, !tbaa !8
  br label %30, !llvm.loop !73

87:                                               ; preds = %35
  %88 = load ptr, ptr %6, align 8, !tbaa !70
  %89 = call noundef nonnull align 8 dereferenceable(8) ptr @_ZStlsISt11char_traitsIcEERSt13basic_ostreamIcT_ES5_PKc(ptr noundef nonnull align 8 dereferenceable(8) %88, ptr noundef @.str.9)
  %90 = load ptr, ptr %9, align 8, !tbaa !3
  %91 = call noundef i32 @_ZNK2pb10constraint1kEv(ptr noundef nonnull align 8 dereferenceable(64) %90)
  %92 = call noundef nonnull align 8 dereferenceable(8) ptr @_ZNSolsEj(ptr noundef nonnull align 8 dereferenceable(8) %89, i32 noundef %91)
  %93 = call noundef nonnull align 8 dereferenceable(8) ptr @_ZStlsISt11char_traitsIcEERSt13basic_ostreamIcT_ES5_PKc(ptr noundef nonnull align 8 dereferenceable(8) %92, ptr noundef @.str.10)
  call void @llvm.lifetime.end.p0(i64 8, ptr %9) #3
  ret ptr %93
}