; Function Attrs: mustprogress uwtable
define hidden noundef nonnull align 8 dereferenceable(8) ptr @_ZNK2pb4card7displayERSoRKNS_16solver_interfaceEb(ptr noundef nonnull readonly align 8 captures(none) dereferenceable(64) %0, ptr noundef nonnull align 8 dereferenceable(8) %1, ptr noundef nonnull align 8 dereferenceable(8) %2, i1 noundef zeroext %3) unnamed_addr #8 align 2 {
  %5 = getelementptr inbounds nuw i8, ptr %0, i64 16
  %.sroa.0.0.copyload.i = load i32, ptr %5, align 8, !tbaa !9
  %6 = getelementptr inbounds nuw i8, ptr %0, i64 32
  %7 = load i32, ptr %6, align 8, !tbaa !20
  tail call void @_ZNK2pb10constraint11display_litERSoRKNS_16solver_interfaceEN3sat7literalEjb(ptr nonnull align 8 poison, ptr noundef nonnull align 8 dereferenceable(8) %1, ptr noundef nonnull align 8 dereferenceable(8) %2, i32 %.sroa.0.0.copyload.i, i32 noundef %7, i1 noundef zeroext %3)
  %8 = load i32, ptr %6, align 8, !tbaa !20
  %.not = icmp eq i32 %8, 0
  br i1 %.not, label %._crit_edge, label %.lr.ph

.lr.ph:                                           ; preds = %4
  %9 = getelementptr inbounds nuw i8, ptr %0, i64 64
  br i1 %3, label %.lr.ph.split.us, label %.lr.ph.split

.lr.ph.split.us:                                  ; preds = %.lr.ph, %40
  %indvars.iv33 = phi i64 [ %indvars.iv.next34, %40 ], [ 0, %.lr.ph ]
  %10 = getelementptr inbounds nuw [0 x %"class.sat::literal"], ptr %9, i64 0, i64 %indvars.iv33
  %.sroa.0.0.copyload.i29.us = load i32, ptr %10, align 4, !tbaa !9
  %11 = icmp eq i32 %.sroa.0.0.copyload.i29.us, -2
  br i1 %11, label %20, label %12

12:                                               ; preds = %.lr.ph.split.us
  %13 = and i32 %.sroa.0.0.copyload.i29.us, 1
  %.not.not.i.us = icmp eq i32 %13, 0
  %14 = select i1 %.not.not.i.us, ptr @.str.15, ptr @.str.14
  %15 = zext nneg i32 %13 to i64
  %16 = tail call noundef nonnull align 8 dereferenceable(8) ptr @_ZSt16__ostream_insertIcSt11char_traitsIcEERSt13basic_ostreamIT_T0_ES6_PKS3_l(ptr noundef nonnull align 8 dereferenceable(8) %1, ptr noundef nonnull %14, i64 noundef %15)
  %17 = lshr i32 %.sroa.0.0.copyload.i29.us, 1
  %18 = zext nneg i32 %17 to i64
  %19 = tail call noundef nonnull align 8 dereferenceable(8) ptr @_ZNSo9_M_insertImEERSoT_(ptr noundef nonnull align 8 dereferenceable(8) %1, i64 noundef %18)
  br label %_ZN3satlsERSoNS_7literalE.exit.us

20:                                               ; preds = %.lr.ph.split.us
  %21 = tail call noundef nonnull align 8 dereferenceable(8) ptr @_ZSt16__ostream_insertIcSt11char_traitsIcEERSt13basic_ostreamIT_T0_ES6_PKS3_l(ptr noundef nonnull align 8 dereferenceable(8) %1, ptr noundef nonnull @.str.13, i64 noundef 4)
  br label %_ZN3satlsERSoNS_7literalE.exit.us

_ZN3satlsERSoNS_7literalE.exit.us:                ; preds = %20, %12
  %22 = tail call noundef nonnull align 8 dereferenceable(8) ptr @_ZSt16__ostream_insertIcSt11char_traitsIcEERSt13basic_ostreamIT_T0_ES6_PKS3_l(ptr noundef nonnull align 8 dereferenceable(8) %1, ptr noundef nonnull @.str.4, i64 noundef 2)
  %23 = load ptr, ptr %2, align 8, !tbaa !26
  %24 = getelementptr inbounds nuw i8, ptr %23, i64 24
  %25 = load ptr, ptr %24, align 8
  %26 = tail call noundef i32 %25(ptr noundef nonnull align 8 dereferenceable(8) %2, i32 %.sroa.0.0.copyload.i29.us)
  %27 = tail call noundef nonnull align 8 dereferenceable(8) ptr @_ZlsRSo5lbool(ptr noundef nonnull align 8 dereferenceable(8) %1, i32 noundef %26)
  %28 = load ptr, ptr %2, align 8, !tbaa !26
  %29 = getelementptr inbounds nuw i8, ptr %28, i64 24
  %30 = load ptr, ptr %29, align 8
  %31 = tail call noundef i32 %30(ptr noundef nonnull align 8 dereferenceable(8) %2, i32 %.sroa.0.0.copyload.i29.us)
  %.not.us = icmp eq i32 %31, 0
  br i1 %.not.us, label %40, label %32

32:                                               ; preds = %_ZN3satlsERSoNS_7literalE.exit.us
  %33 = tail call noundef nonnull align 8 dereferenceable(8) ptr @_ZSt16__ostream_insertIcSt11char_traitsIcEERSt13basic_ostreamIT_T0_ES6_PKS3_l(ptr noundef nonnull align 8 dereferenceable(8) %1, ptr noundef nonnull @.str.5, i64 noundef 1)
  %34 = load ptr, ptr %2, align 8, !tbaa !26
  %35 = getelementptr inbounds nuw i8, ptr %34, i64 40
  %36 = load ptr, ptr %35, align 8
  %37 = tail call noundef i32 %36(ptr noundef nonnull align 8 dereferenceable(8) %2, i32 %.sroa.0.0.copyload.i29.us)
  %38 = zext i32 %37 to i64
  %39 = tail call noundef nonnull align 8 dereferenceable(8) ptr @_ZNSo9_M_insertImEERSoT_(ptr noundef nonnull align 8 dereferenceable(8) %1, i64 noundef %38)
  br label %40

40:                                               ; preds = %32, %_ZN3satlsERSoNS_7literalE.exit.us
  %41 = tail call noundef nonnull align 8 dereferenceable(8) ptr @_ZSt16__ostream_insertIcSt11char_traitsIcEERSt13basic_ostreamIT_T0_ES6_PKS3_l(ptr noundef nonnull align 8 dereferenceable(8) %1, ptr noundef nonnull @.str.8, i64 noundef 2)
  %indvars.iv.next34 = add nuw nsw i64 %indvars.iv33, 1
  %42 = load i32, ptr %6, align 8, !tbaa !20
  %43 = zext i32 %42 to i64
  %44 = icmp samesign ult i64 %indvars.iv.next34, %43
  br i1 %44, label %.lr.ph.split.us, label %._crit_edge, !llvm.loop !48

._crit_edge:                                      ; preds = %_ZN3satlsERSoNS_7literalE.exit, %40, %4
  %45 = tail call noundef nonnull align 8 dereferenceable(8) ptr @_ZSt16__ostream_insertIcSt11char_traitsIcEERSt13basic_ostreamIT_T0_ES6_PKS3_l(ptr noundef nonnull align 8 dereferenceable(8) %1, ptr noundef nonnull @.str.9, i64 noundef 3)
  %46 = getelementptr inbounds nuw i8, ptr %0, i64 60
  %47 = load i32, ptr %46, align 4, !tbaa !25
  %48 = zext i32 %47 to i64
  %49 = tail call noundef nonnull align 8 dereferenceable(8) ptr @_ZNSo9_M_insertImEERSoT_(ptr noundef nonnull align 8 dereferenceable(8) %1, i64 noundef %48)
  %50 = tail call noundef nonnull align 8 dereferenceable(8) ptr @_ZSt16__ostream_insertIcSt11char_traitsIcEERSt13basic_ostreamIT_T0_ES6_PKS3_l(ptr noundef nonnull align 8 dereferenceable(8) %49, ptr noundef nonnull @.str.10, i64 noundef 1)
  ret ptr %49

.lr.ph.split:                                     ; preds = %.lr.ph, %_ZN3satlsERSoNS_7literalE.exit
  %indvars.iv = phi i64 [ %indvars.iv.next, %_ZN3satlsERSoNS_7literalE.exit ], [ 0, %.lr.ph ]
  %51 = getelementptr inbounds nuw [0 x %"class.sat::literal"], ptr %9, i64 0, i64 %indvars.iv
  %.sroa.0.0.copyload.i29 = load i32, ptr %51, align 4, !tbaa !9
  %52 = icmp eq i32 %.sroa.0.0.copyload.i29, -2
  br i1 %52, label %53, label %55

53:                                               ; preds = %.lr.ph.split
  %54 = tail call noundef nonnull align 8 dereferenceable(8) ptr @_ZSt16__ostream_insertIcSt11char_traitsIcEERSt13basic_ostreamIT_T0_ES6_PKS3_l(ptr noundef nonnull align 8 dereferenceable(8) %1, ptr noundef nonnull @.str.13, i64 noundef 4)
  br label %_ZN3satlsERSoNS_7literalE.exit

55:                                               ; preds = %.lr.ph.split
  %56 = and i32 %.sroa.0.0.copyload.i29, 1
  %.not.not.i = icmp eq i32 %56, 0
  %57 = select i1 %.not.not.i, ptr @.str.15, ptr @.str.14
  %58 = zext nneg i32 %56 to i64
  %59 = tail call noundef nonnull align 8 dereferenceable(8) ptr @_ZSt16__ostream_insertIcSt11char_traitsIcEERSt13basic_ostreamIT_T0_ES6_PKS3_l(ptr noundef nonnull align 8 dereferenceable(8) %1, ptr noundef nonnull %57, i64 noundef %58)
  %60 = lshr i32 %.sroa.0.0.copyload.i29, 1
  %61 = zext nneg i32 %60 to i64
  %62 = tail call noundef nonnull align 8 dereferenceable(8) ptr @_ZNSo9_M_insertImEERSoT_(ptr noundef nonnull align 8 dereferenceable(8) %1, i64 noundef %61)
  br label %_ZN3satlsERSoNS_7literalE.exit

_ZN3satlsERSoNS_7literalE.exit:                   ; preds = %53, %55
  %63 = tail call noundef nonnull align 8 dereferenceable(8) ptr @_ZSt16__ostream_insertIcSt11char_traitsIcEERSt13basic_ostreamIT_T0_ES6_PKS3_l(ptr noundef nonnull align 8 dereferenceable(8) %1, ptr noundef nonnull @.str, i64 noundef 1)
  %indvars.iv.next = add nuw nsw i64 %indvars.iv, 1
  %64 = load i32, ptr %6, align 8, !tbaa !20
  %65 = zext i32 %64 to i64
  %66 = icmp samesign ult i64 %indvars.iv.next, %65
  br i1 %66, label %.lr.ph.split, label %._crit_edge, !llvm.loop !48
}